ccopy_reg
_reconstructor
p0
(csklearn.preprocessing.label
LabelEncoder
p1
c__builtin__
object
p2
Ntp3
Rp4
(dp5
S'classes_'
p6
cnumpy.core.multiarray
_reconstruct
p7
(cnumpy
ndarray
p8
(I0
tp9
S'b'
p10
tp11
Rp12
(I1
(I14
tp13
cnumpy
dtype
p14
(S'O8'
p15
I0
I1
tp16
Rp17
(I3
S'|'
p18
NNNI-1
I-1
I63
tp19
bI00
(lp20
Fnan
aS'Apr'
p21
aS'Aug'
p22
aS'Dec'
p23
aS'Feb'
p24
aS'Jan'
p25
aS'Jul'
p26
aS'Jun'
p27
aS'Mar'
p28
aS'May'
p29
aS'Nov'
p30
aS'Oct'
p31
aS'Ready To Move'
p32
aS'Sep'
p33
atp34
bsS'_sklearn_version'
p35
S'0.20.4'
p36
sb.